(dp0
S'date'
p1
S'2018-01-21'
p2
sS'data'
p3
(lp4
(dp5
S'000150'
p6
I4
sa(dp7
S'000418'
p8
I7
sa(dp9
S'000425'
p10
I6
sa(dp11
S'000703'
p12
I6
sa(dp13
S'000818'
p14
I4
sa(dp15
S'002244'
p16
I8
sa(dp17
S'002251'
p18
I6
sa(dp19
S'002293'
p20
I5
sa(dp21
S'002313'
p22
I4
sa(dp23
S'002320'
p24
I6
sa(dp25
S'002760'
p26
I6
sa(dp27
S'002768'
p28
I4
sa(dp29
S'002840'
p30
I4
sa(dp31
S'300241'
p32
S'1'
p33
sa(dp34
S'300308'
p35
I5
sa(dp36
S'300396'
p37
I3
sa(dp38
S'300639'
p39
g33
sa(dp40
S'600183'
p41
g33
sa(dp42
S'600741'
p43
I4
sa(dp44
S'601899'
p45
g33
sa(dp46
S'601939'
p47
I13
sa(dp48
S'603338'
p49
I4
sa(dp50
S'000039'
p51
I3
sa(dp52
S'002042'
p53
I3
sa(dp54
S'002294'
p55
I3
sa(dp56
S'002311'
p57
I3
sa(dp58
S'002614'
p59
I7
sa(dp60
S'300108'
p61
I3
sa(dp62
S'300347'
p63
I3
sa(dp64
S'300349'
p65
I6
sa(dp66
S'300572'
p67
I4
sa(dp68
S'300630'
p69
I3
sa(dp70
S'600048'
p71
I9
sa(dp72
S'600083'
p73
I3
sa(dp74
S'600486'
p75
I5
sa(dp76
S'601155'
p77
I7
sa(dp78
S'601636'
p79
I8
sa(dp80
S'603699'
p81
I7
sa(dp82
S'000671'
p83
I8
sa(dp84
S'000732'
p85
I10
sa(dp86
S'000789'
p87
I2
sa(dp88
S'002050'
p89
I2
sa(dp90
S'002061'
p91
I2
sa(dp92
S'002178'
p93
I7
sa(dp94
S'002258'
p95
I6
sa(dp96
S'002271'
p97
I2
sa(dp98
S'002372'
p99
I6
sa(dp100
S'300110'
p101
I7
sa(dp102
S'300170'
p103
I6
sa(dp104
S'300203'
p105
I2
sa(dp106
S'300251'
p107
I2
sa(dp108
S'300280'
p109
I2
sa(dp110
S'300388'
p111
I2
sa(dp112
S'600028'
p113
I6
sa(dp114
S'600115'
p115
I2
sa(dp116
S'600176'
p117
I3
sa(dp118
S'600188'
p119
I2
sa(dp120
S'600346'
p121
I6
sa(dp122
S'600754'
p123
I6
sa(dp124
S'600859'
p125
I4
sa(dp126
S'600872'
p127
I7
sa(dp128
S'601111'
p129
I2
sa(dp130
S'601313'
p131
I2
sa(dp132
S'601333'
p133
I4
sa(dp134
S'601700'
p135
I2
sa(dp136
S'603883'
p137
I2
sa(dp138
S'000002'
p139
I4
sa(dp140
S'000333'
p141
I6
sa(dp142
S'000651'
p143
I6
sa(dp144
S'000672'
p145
I2
sa(dp146
S'002001'
p147
I5
sa(dp148
S'002221'
p149
I2
sa(dp150
S'002304'
p151
I3
sa(dp152
S'002356'
p153
I5
sa(dp154
S'002584'
p155
I3
sa(dp156
S'002856'
p157
I6
sa(dp158
S'300003'
p159
I3
sa(dp160
S'300470'
p161
I5
sa(dp162
S'300618'
p163
I4
sa(dp164
S'600031'
p165
I2
sa(dp166
S'600216'
p167
I4
sa(dp168
S'600352'
p169
I4
sa(dp170
S'600383'
p171
I4
sa(dp172
S'600519'
p173
I5
sa(dp174
S'600585'
p175
I2
sa(dp176
S'600600'
p177
I3
sa(dp178
S'600606'
p179
I4
sa(dp180
S'600753'
p181
I2
sa(dp182
S'600763'
p183
I4
sa(dp184
S'600771'
p185
I4
sa(dp186
S'600845'
p187
I3
sa(dp188
S'600887'
p189
I5
sa(dp190
S'600890'
p191
I2
sa(dp192
S'601006'
p193
I6
sa(dp194
S'601100'
p195
I2
sa(dp196
S'601233'
p197
I2
sa(dp198
S'603599'
p199
I2
sa(dp200
S'000568'
p201
I5
sa(dp202
S'000663'
p203
I6
sa(dp204
S'000673'
p205
I8
sa(dp206
S'000690'
p207
I2
sa(dp208
S'000858'
p209
I4
sa(dp210
S'000869'
p211
S'1'
p212
sa(dp213
S'000895'
p214
I3
sa(dp215
S'002151'
p216
g212
sa(dp217
S'002382'
p218
I4
sa(dp219
S'002508'
p220
I5
sa(dp221
S'300122'
p222
I4
sa(dp223
S'300146'
p224
I6
sa(dp225
S'300176'
p226
g212
sa(dp227
S'600093'
p228
I3
sa(dp229
S'600138'
p230
g212
sa(dp231
S'600179'
p232
I4
sa(dp233
S'600436'
p234
I5
sa(dp235
S'600466'
p236
I3
sa(dp237
S'600530'
p238
g212
sa(dp239
S'600660'
p240
g212
sa(dp241
S'600673'
p242
I5
sa(dp243
S'600690'
p244
I5
sa(dp245
S'600760'
p246
g212
sa(dp247
S'600856'
p248
I4
sa(dp249
S'600867'
p250
I2
sa(dp251
S'601857'
p252
I7
sa(dp253
S'603002'
p254
I2
sa(dp255
S'603288'
p256
I2
sa(dp257
S'603816'
p258
I2
sa(dp259
S'002044'
p260
I4
sa(dp261
S'002063'
p262
S'1'
p263
sa(dp264
S'002369'
p265
I3
sa(dp266
S'002419'
p267
I3
sa(dp268
S'002650'
p269
g263
sa(dp270
S'300064'
p271
g263
sa(dp272
S'300074'
p273
I6
sa(dp274
S'300202'
p275
g263
sa(dp276
S'600036'
p277
I8
sa(dp278
S'600345'
p279
g263
sa(dp280
S'601288'
p281
I9
sa(dp282
S'603899'
p283
g263
sa(dp284
S'000517'
p285
I3
sa(dp286
S'000661'
p287
I4
sa(dp288
S'002610'
p289
I2
sa(dp290
S'002626'
p291
I2
sa(dp292
S'002656'
p293
I2
sa(dp294
S'300109'
p295
I2
sa(dp296
S'300542'
p297
I3
sa(dp298
S'603833'
p299
I4
sa(dp300
S'000513'
p301
I2
sa(dp302
S'002078'
p303
I6
sa(dp304
S'300325'
p305
S'1'
p306
sa(dp307
S'600779'
p308
I2
sa(dp309
S'600809'
p310
I6
sa(dp311
S'601398'
p312
I3
sa(dp313
S'000553'
p314
I2
sa(dp315
S'000596'
p316
I2
sa(dp317
S'000729'
p318
I3
sa(dp319
S'000961'
p320
I2
sa(dp321
S'001979'
p322
I2
sa(dp323
S'002016'
p324
S'1'
p325
sa(dp326
S'002596'
p327
I2
sa(dp328
S'002648'
p329
I2
sa(dp330
S'002714'
p331
g325
sa(dp332
S'300487'
p333
I6
sa(dp334
S'600009'
p335
g325
sa(dp336
S'600030'
p337
I3
sa(dp338
S'600258'
p339
I2
sa(dp340
S'600298'
p341
g325
sa(dp342
S'600787'
p343
I2
sa(dp344
S'000069'
p345
S'1'
p346
sa(dp347
S'300226'
p348
I5
sa(dp349
S'601166'
p350
I2
sa(dp351
S'603866'
p352
g346
sa(dp353
S'000504'
p354
S'1'
p355
sa(dp356
S'000830'
p357
g355
sa(dp358
S'002597'
p359
g355
sa(dp360
S'600197'
p361
g355
sa(dp362
S'600426'
p363
g355
sa(dp364
S'601988'
p365
I4
sa(dp366
S'601998'
p367
g355
sa(dp368
S'603011'
p369
g355
sa(dp370
S'601328'
p371
I3
sa(dp372
S'601818'
p373
I3
sas.