(dp0
S'date'
p1
S'2017-12-30'
p2
sS'data'
p3
(lp4
(dp5
S'000150'
p6
I2
sa(dp7
S'000418'
p8
I2
sa(dp9
S'000425'
p10
I2
sa(dp11
S'000703'
p12
I2
sa(dp13
S'000818'
p14
I2
sa(dp15
S'002244'
p16
I2
sa(dp17
S'002251'
p18
S'1'
p19
sa(dp20
S'002293'
p21
I2
sa(dp22
S'002313'
p23
I2
sa(dp24
S'002320'
p25
g19
sa(dp26
S'002760'
p27
I2
sa(dp28
S'002768'
p29
I2
sa(dp30
S'002840'
p31
I2
sa(dp32
S'300241'
p33
g19
sa(dp34
S'300308'
p35
g19
sa(dp36
S'300396'
p37
g19
sa(dp38
S'300639'
p39
g19
sa(dp40
S'600183'
p41
g19
sa(dp42
S'600741'
p43
I2
sa(dp44
S'601899'
p45
g19
sa(dp46
S'601939'
p47
I2
sa(dp48
S'603338'
p49
I2
sa(dp50
S'000039'
p51
S'1'
p52
sa(dp53
S'002042'
p54
g52
sa(dp55
S'002294'
p56
g52
sa(dp57
S'002311'
p58
g52
sa(dp59
S'002614'
p60
g52
sa(dp61
S'300108'
p62
g52
sa(dp63
S'300347'
p64
g52
sa(dp65
S'300349'
p66
g52
sa(dp67
S'300572'
p68
g52
sa(dp69
S'300630'
p70
g52
sa(dp71
S'600048'
p72
g52
sa(dp73
S'600083'
p74
g52
sa(dp75
S'600486'
p76
g52
sa(dp77
S'601155'
p78
g52
sa(dp79
S'601636'
p80
g52
sa(dp81
S'603699'
p82
g52
sas.