(dp0
S'date'
p1
S'2017-12-31'
p2
sS'data'
p3
(lp4
(dp5
S'000150'
p6
I3
sa(dp7
S'000418'
p8
I3
sa(dp9
S'000425'
p10
I3
sa(dp11
S'000703'
p12
I3
sa(dp13
S'000818'
p14
I3
sa(dp15
S'002244'
p16
I3
sa(dp17
S'002251'
p18
S'1'
p19
sa(dp20
S'002293'
p21
I3
sa(dp22
S'002313'
p23
I3
sa(dp24
S'002320'
p25
g19
sa(dp26
S'002760'
p27
I3
sa(dp28
S'002768'
p29
I3
sa(dp30
S'002840'
p31
I3
sa(dp32
S'300241'
p33
g19
sa(dp34
S'300308'
p35
g19
sa(dp36
S'300396'
p37
g19
sa(dp38
S'300639'
p39
g19
sa(dp40
S'600183'
p41
g19
sa(dp42
S'600741'
p43
I3
sa(dp44
S'601899'
p45
g19
sa(dp46
S'601939'
p47
I3
sa(dp48
S'603338'
p49
I3
sa(dp50
S'000039'
p51
I2
sa(dp52
S'002042'
p53
I2
sa(dp54
S'002294'
p55
I2
sa(dp56
S'002311'
p57
I2
sa(dp58
S'002614'
p59
I2
sa(dp60
S'300108'
p61
I2
sa(dp62
S'300347'
p63
I2
sa(dp64
S'300349'
p65
I2
sa(dp66
S'300572'
p67
I2
sa(dp68
S'300630'
p69
I2
sa(dp70
S'600048'
p71
I2
sa(dp72
S'600083'
p73
I2
sa(dp74
S'600486'
p75
I2
sa(dp76
S'601155'
p77
I2
sa(dp78
S'601636'
p79
I2
sa(dp80
S'603699'
p81
I2
sas.