(dp0
S'date'
p1
S'2017-12-27'
p2
sS'data'
p3
(lp4
(dp5
S'000333'
p6
I2
sa(dp7
S'000503'
p8
I3
sa(dp9
S'000703'
p10
I3
sa(dp11
S'002001'
p12
I2
sa(dp13
S'002202'
p14
I2
sa(dp15
S'002251'
p16
I2
sa(dp17
S'002293'
p18
I3
sa(dp19
S'002311'
p20
I2
sa(dp21
S'002313'
p22
I2
sa(dp23
S'002320'
p24
I2
sa(dp25
S'002508'
p26
I2
sa(dp27
S'002650'
p28
I3
sa(dp29
S'002840'
p30
I2
sa(dp31
S'300225'
p32
I2
sa(dp33
S'300349'
p34
I3
sa(dp35
S'600029'
p36
I2
sa(dp37
S'600048'
p38
I2
sa(dp39
S'600115'
p40
I2
sa(dp41
S'600165'
p42
I2
sa(dp43
S'600176'
p44
I2
sa(dp45
S'600600'
p46
I2
sa(dp47
S'600856'
p48
I2
sa(dp49
S'601155'
p50
I2
sa(dp51
S'601939'
p52
I2
sa(dp53
S'603377'
p54
I2
sa(dp55
S'603939'
p56
I2
sa(dp57
S'000150'
p58
S'1'
p59
sa(dp60
S'000425'
p61
g59
sa(dp62
S'000732'
p63
g59
sa(dp64
S'000818'
p65
g59
sa(dp66
S'000968'
p67
g59
sa(dp68
S'002042'
p69
g59
sa(dp70
S'002258'
p71
g59
sa(dp72
S'002294'
p73
g59
sa(dp74
S'300241'
p75
g59
sa(dp76
S'300639'
p77
g59
sa(dp78
S'600188'
p79
g59
sa(dp80
S'600333'
p81
g59
sa(dp82
S'600520'
p83
g59
sas.