(dp0
S'date'
p1
S'2017-12-28'
p2
sS'data'
p3
(lp4
(dp5
S'000333'
p6
I2
sa(dp7
S'000503'
p8
I3
sa(dp9
S'000703'
p10
I3
sa(dp11
S'002001'
p12
I2
sa(dp13
S'002202'
p14
I2
sa(dp15
S'002251'
p16
I3
sa(dp17
S'002293'
p18
I3
sa(dp19
S'002311'
p20
I3
sa(dp21
S'002313'
p22
I3
sa(dp23
S'002320'
p24
I3
sa(dp25
S'002508'
p26
I2
sa(dp27
S'002650'
p28
I4
sa(dp29
S'002840'
p30
I2
sa(dp31
S'300225'
p32
I2
sa(dp33
S'300349'
p34
I4
sa(dp35
S'600029'
p36
I3
sa(dp37
S'600048'
p38
I3
sa(dp39
S'600115'
p40
I3
sa(dp41
S'600165'
p42
I3
sa(dp43
S'600176'
p44
I2
sa(dp45
S'600600'
p46
I3
sa(dp47
S'600856'
p48
I3
sa(dp49
S'601155'
p50
I2
sa(dp51
S'601939'
p52
I3
sa(dp53
S'603377'
p54
I2
sa(dp55
S'603939'
p56
I2
sa(dp57
S'000150'
p58
I2
sa(dp59
S'000425'
p60
I2
sa(dp61
S'002768'
p62
S'1'
p63
sa(dp64
S'300308'
p65
g63
sa(dp66
S'300316'
p67
g63
sa(dp68
S'300639'
p69
I2
sa(dp70
S'600333'
p71
I2
sa(dp72
S'600426'
p73
g63
sa(dp74
S'600520'
p75
I2
sa(dp76
S'600917'
p77
g63
sa(dp78
S'601100'
p79
g63
sa(dp80
S'601700'
p81
g63
sa(dp82
S'601766'
p83
g63
sa(dp84
S'603699'
p85
g63
sa(dp86
S'603883'
p87
g63
sa(dp88
S'000732'
p89
S'1'
p90
sa(dp91
S'000818'
p92
g90
sa(dp93
S'000968'
p94
g90
sa(dp95
S'002042'
p96
g90
sa(dp97
S'002258'
p98
g90
sa(dp99
S'002294'
p100
g90
sa(dp101
S'300241'
p102
g90
sa(dp103
S'600188'
p104
g90
sas.