(dp0
S'date'
p1
S'2018-01-04'
p2
sS'data'
p3
(lp4
(dp5
S'000150'
p6
I4
sa(dp7
S'000418'
p8
I4
sa(dp9
S'000425'
p10
I4
sa(dp11
S'000703'
p12
I6
sa(dp13
S'000818'
p14
I4
sa(dp15
S'002244'
p16
I4
sa(dp17
S'002251'
p18
S'1'
p19
sa(dp20
S'002293'
p21
I4
sa(dp22
S'002313'
p23
I4
sa(dp24
S'002320'
p25
g19
sa(dp26
S'002760'
p27
I4
sa(dp28
S'002768'
p29
I4
sa(dp30
S'002840'
p31
I4
sa(dp32
S'300241'
p33
g19
sa(dp34
S'300308'
p35
g19
sa(dp36
S'300396'
p37
I3
sa(dp38
S'300639'
p39
g19
sa(dp40
S'600183'
p41
g19
sa(dp42
S'600741'
p43
I4
sa(dp44
S'601899'
p45
g19
sa(dp46
S'601939'
p47
I4
sa(dp48
S'603338'
p49
I4
sa(dp50
S'000039'
p51
I3
sa(dp52
S'002042'
p53
I3
sa(dp54
S'002294'
p55
I3
sa(dp56
S'002311'
p57
I3
sa(dp58
S'002614'
p59
I5
sa(dp60
S'300108'
p61
I3
sa(dp62
S'300347'
p63
I3
sa(dp64
S'300349'
p65
I5
sa(dp66
S'300572'
p67
I3
sa(dp68
S'300630'
p69
I3
sa(dp70
S'600048'
p71
I3
sa(dp72
S'600083'
p73
I3
sa(dp74
S'600486'
p75
I5
sa(dp76
S'601155'
p77
I3
sa(dp78
S'601636'
p79
I5
sa(dp80
S'603699'
p81
I5
sa(dp82
S'000671'
p83
I2
sa(dp84
S'000732'
p85
I2
sa(dp86
S'000789'
p87
I2
sa(dp88
S'002050'
p89
I2
sa(dp90
S'002061'
p91
I2
sa(dp92
S'002178'
p93
I2
sa(dp94
S'002258'
p95
I2
sa(dp96
S'002271'
p97
I2
sa(dp98
S'002372'
p99
I2
sa(dp100
S'300110'
p101
I2
sa(dp102
S'300170'
p103
I2
sa(dp104
S'300203'
p105
I2
sa(dp106
S'300251'
p107
I2
sa(dp108
S'300280'
p109
I2
sa(dp110
S'300388'
p111
I2
sa(dp112
S'600028'
p113
I2
sa(dp114
S'600115'
p115
I2
sa(dp116
S'600176'
p117
I2
sa(dp118
S'600188'
p119
I2
sa(dp120
S'600346'
p121
I2
sa(dp122
S'600754'
p123
I2
sa(dp124
S'600859'
p125
I2
sa(dp126
S'600872'
p127
I2
sa(dp128
S'601111'
p129
I2
sa(dp130
S'601313'
p131
I2
sa(dp132
S'601333'
p133
I2
sa(dp134
S'601700'
p135
I2
sa(dp136
S'603883'
p137
I2
sas.