(dp0
S'date'
p1
S'2018-01-07'
p2
sS'data'
p3
(lp4
(dp5
S'000150'
p6
I4
sa(dp7
S'000418'
p8
I4
sa(dp9
S'000425'
p10
I6
sa(dp11
S'000703'
p12
I6
sa(dp13
S'000818'
p14
I4
sa(dp15
S'002244'
p16
I6
sa(dp17
S'002251'
p18
I3
sa(dp19
S'002293'
p20
I4
sa(dp21
S'002313'
p22
I4
sa(dp23
S'002320'
p24
S'1'
p25
sa(dp26
S'002760'
p27
I4
sa(dp28
S'002768'
p29
I4
sa(dp30
S'002840'
p31
I4
sa(dp32
S'300241'
p33
g25
sa(dp34
S'300308'
p35
g25
sa(dp36
S'300396'
p37
I3
sa(dp38
S'300639'
p39
g25
sa(dp40
S'600183'
p41
g25
sa(dp42
S'600741'
p43
I4
sa(dp44
S'601899'
p45
g25
sa(dp46
S'601939'
p47
I4
sa(dp48
S'603338'
p49
I4
sa(dp50
S'000039'
p51
I3
sa(dp52
S'002042'
p53
I3
sa(dp54
S'002294'
p55
I3
sa(dp56
S'002311'
p57
I3
sa(dp58
S'002614'
p59
I5
sa(dp60
S'300108'
p61
I3
sa(dp62
S'300347'
p63
I3
sa(dp64
S'300349'
p65
I5
sa(dp66
S'300572'
p67
I3
sa(dp68
S'300630'
p69
I3
sa(dp70
S'600048'
p71
I5
sa(dp72
S'600083'
p73
I3
sa(dp74
S'600486'
p75
I5
sa(dp76
S'601155'
p77
I5
sa(dp78
S'601636'
p79
I7
sa(dp80
S'603699'
p81
I5
sa(dp82
S'000671'
p83
I4
sa(dp84
S'000732'
p85
I4
sa(dp86
S'000789'
p87
I2
sa(dp88
S'002050'
p89
I2
sa(dp90
S'002061'
p91
I2
sa(dp92
S'002178'
p93
I4
sa(dp94
S'002258'
p95
I2
sa(dp96
S'002271'
p97
I2
sa(dp98
S'002372'
p99
I4
sa(dp100
S'300110'
p101
I4
sa(dp102
S'300170'
p103
I4
sa(dp104
S'300203'
p105
I2
sa(dp106
S'300251'
p107
I2
sa(dp108
S'300280'
p109
I2
sa(dp110
S'300388'
p111
I2
sa(dp112
S'600028'
p113
I4
sa(dp114
S'600115'
p115
I2
sa(dp116
S'600176'
p117
I2
sa(dp118
S'600188'
p119
I2
sa(dp120
S'600346'
p121
I2
sa(dp122
S'600754'
p123
I2
sa(dp124
S'600859'
p125
I2
sa(dp126
S'600872'
p127
I4
sa(dp128
S'601111'
p129
I2
sa(dp130
S'601313'
p131
I2
sa(dp132
S'601333'
p133
I4
sa(dp134
S'601700'
p135
I2
sa(dp136
S'603883'
p137
I2
sa(dp138
S'000002'
p139
I2
sa(dp140
S'000333'
p141
I2
sa(dp142
S'000651'
p143
I2
sa(dp144
S'000672'
p145
I2
sa(dp146
S'002001'
p147
I2
sa(dp148
S'002221'
p149
I2
sa(dp150
S'002304'
p151
I2
sa(dp152
S'002356'
p153
I2
sa(dp154
S'002584'
p155
I2
sa(dp156
S'002856'
p157
I2
sa(dp158
S'300003'
p159
I2
sa(dp160
S'300470'
p161
I2
sa(dp162
S'300618'
p163
I2
sa(dp164
S'600031'
p165
I2
sa(dp166
S'600216'
p167
I2
sa(dp168
S'600352'
p169
I2
sa(dp170
S'600383'
p171
I2
sa(dp172
S'600519'
p173
I2
sa(dp174
S'600585'
p175
I2
sa(dp176
S'600600'
p177
I2
sa(dp178
S'600606'
p179
I2
sa(dp180
S'600753'
p181
I2
sa(dp182
S'600763'
p183
I2
sa(dp184
S'600771'
p185
I2
sa(dp186
S'600845'
p187
I2
sa(dp188
S'600887'
p189
I2
sa(dp190
S'600890'
p191
I2
sa(dp192
S'601006'
p193
I2
sa(dp194
S'601100'
p195
I2
sa(dp196
S'601233'
p197
I2
sa(dp198
S'603599'
p199
I2
sas.