(dp0
S'date'
p1
S'2018-01-03'
p2
sS'data'
p3
(lp4
(dp5
S'000150'
p6
I4
sa(dp7
S'000418'
p8
I4
sa(dp9
S'000425'
p10
I4
sa(dp11
S'000703'
p12
I5
sa(dp13
S'000818'
p14
I4
sa(dp15
S'002244'
p16
I4
sa(dp17
S'002251'
p18
S'1'
p19
sa(dp20
S'002293'
p21
I4
sa(dp22
S'002313'
p23
I4
sa(dp24
S'002320'
p25
g19
sa(dp26
S'002760'
p27
I4
sa(dp28
S'002768'
p29
I4
sa(dp30
S'002840'
p31
I4
sa(dp32
S'300241'
p33
g19
sa(dp34
S'300308'
p35
g19
sa(dp36
S'300396'
p37
I2
sa(dp38
S'300639'
p39
g19
sa(dp40
S'600183'
p41
g19
sa(dp42
S'600741'
p43
I4
sa(dp44
S'601899'
p45
g19
sa(dp46
S'601939'
p47
I4
sa(dp48
S'603338'
p49
I4
sa(dp50
S'000039'
p51
I3
sa(dp52
S'002042'
p53
I3
sa(dp54
S'002294'
p55
I3
sa(dp56
S'002311'
p57
I3
sa(dp58
S'002614'
p59
I4
sa(dp60
S'300108'
p61
I3
sa(dp62
S'300347'
p63
I3
sa(dp64
S'300349'
p65
I4
sa(dp66
S'300572'
p67
I3
sa(dp68
S'300630'
p69
I3
sa(dp70
S'600048'
p71
I3
sa(dp72
S'600083'
p73
I3
sa(dp74
S'600486'
p75
I4
sa(dp76
S'601155'
p77
I3
sa(dp78
S'601636'
p79
I4
sa(dp80
S'603699'
p81
I4
sa(dp82
S'000671'
p83
S'1'
p84
sa(dp85
S'000732'
p86
g84
sa(dp87
S'000789'
p88
g84
sa(dp89
S'002050'
p90
g84
sa(dp91
S'002061'
p92
g84
sa(dp93
S'002178'
p94
g84
sa(dp95
S'002258'
p96
g84
sa(dp97
S'002271'
p98
g84
sa(dp99
S'002372'
p100
g84
sa(dp101
S'300110'
p102
g84
sa(dp103
S'300170'
p104
g84
sa(dp105
S'300203'
p106
g84
sa(dp107
S'300251'
p108
g84
sa(dp109
S'300280'
p110
g84
sa(dp111
S'300388'
p112
g84
sa(dp113
S'600028'
p114
g84
sa(dp115
S'600115'
p116
g84
sa(dp117
S'600176'
p118
g84
sa(dp119
S'600188'
p120
g84
sa(dp121
S'600346'
p122
g84
sa(dp123
S'600754'
p124
g84
sa(dp125
S'600859'
p126
g84
sa(dp127
S'600872'
p128
g84
sa(dp129
S'601111'
p130
g84
sa(dp131
S'601313'
p132
g84
sa(dp133
S'601333'
p134
g84
sa(dp135
S'601700'
p136
g84
sa(dp137
S'603883'
p138
g84
sas.